; Function Attrs: nounwind uwtable
define internal fastcc range(i32 0, 2) i32 @thread_run_test(ptr noundef readonly captures(address_is_null) %0, i64 noundef range(i64 2, 11) %1, ptr noundef %2, i32 noundef range(i32 0, 2) %3, ptr noundef captures(address_is_null) %4) unnamed_addr #1 {
  store i1 true, ptr @multi_success, align 4
  store ptr null, ptr @multi_libctx, align 8, !tbaa !16
  store i64 0, ptr @multi_num_threads, align 8, !tbaa !12
  tail call void @llvm.memset.p0.i64(ptr noundef nonnull align 16 dereferenceable(80) @multi_threads, i8 0, i64 80, i1 false)
  tail call void @llvm.memset.p0.i64(ptr noundef nonnull align 16 dereferenceable(40) @multi_provider, i8 0, i64 40, i1 false)
  %6 = tail call fastcc i32 @thread_setup_libctx(i32 noundef %3, ptr noundef %4)
  %.not = icmp eq i32 %6, 0
  br i1 %.not, label %teardown_threads.exit, label %7

7:                                                ; preds = %5
  %8 = load i64, ptr @multi_num_threads, align 8, !tbaa !12
  %9 = add i64 %8, %1
  %10 = tail call i32 @test_size_t_le(ptr noundef nonnull @.str.18, i32 noundef 780, ptr noundef nonnull @.str.49, ptr noundef nonnull @.str.50, i64 noundef %9, i64 noundef 10) #11
  %.not.i = icmp eq i32 %10, 0
  br i1 %.not.i, label %teardown_threads.exit, label %.preheader.i

11:                                               ; preds = %.preheader.i
  %12 = add nuw nsw i64 %.07.i, 1
  %exitcond.not.i = icmp eq i64 %12, %1
  br i1 %exitcond.not.i, label %start_threads.exit, label %.preheader.i, !llvm.loop !21

.preheader.i:                                     ; preds = %7, %11
  %.07.i = phi i64 [ %12, %11 ], [ 0, %7 ]
  %13 = load i64, ptr @multi_num_threads, align 8, !tbaa !12
  %14 = add i64 %13, 1
  store i64 %14, ptr @multi_num_threads, align 8, !tbaa !12
  %15 = getelementptr inbounds nuw i64, ptr @multi_threads, i64 %13
  %16 = tail call i32 @pthread_create(ptr noundef nonnull %15, ptr noundef null, ptr noundef nonnull @thread_run, ptr noundef %2) #11
  %17 = icmp eq i32 %16, 0
  %18 = zext i1 %17 to i32
  %19 = tail call i32 @test_true(ptr noundef nonnull @.str.18, i32 noundef 784, ptr noundef nonnull @.str.51, i32 noundef %18) #11
  %.not6.i = icmp eq i32 %19, 0
  br i1 %.not6.i, label %teardown_threads.exit, label %11

start_threads.exit:                               ; preds = %11
  %.not8 = icmp eq ptr %0, null
  br i1 %.not8, label %21, label %20

20:                                               ; preds = %start_threads.exit
  tail call void %0() #11
  br label %21

21:                                               ; preds = %20, %start_threads.exit
  %22 = load i64, ptr @multi_num_threads, align 8, !tbaa !12
  %.not8.i = icmp eq i64 %22, 0
  br i1 %.not8.i, label %.loopexit, label %.lr.ph.i

23:                                               ; preds = %.lr.ph.i
  %24 = add nuw i64 %.05.i11, 1
  %25 = load i64, ptr @multi_num_threads, align 8, !tbaa !12
  %26 = icmp ult i64 %24, %25
  br i1 %26, label %.lr.ph.i, label %.loopexit, !llvm.loop !22

.lr.ph.i:                                         ; preds = %21, %23
  %.05.i11 = phi i64 [ %24, %23 ], [ 0, %21 ]
  %27 = getelementptr inbounds nuw [10 x i64], ptr @multi_threads, i64 0, i64 %.05.i11
  %28 = load i64, ptr %27, align 8, !tbaa !12
  %29 = tail call i32 @pthread_join(i64 noundef %28, ptr noundef null) #11
  %30 = icmp eq i32 %29, 0
  %31 = zext i1 %30 to i32
  %32 = tail call i32 @test_true(ptr noundef nonnull @.str.18, i32 noundef 771, ptr noundef nonnull @.str.52, i32 noundef %31) #11
  %.not.i12 = icmp eq i32 %32, 0
  br i1 %.not.i12, label %teardown_threads.exit, label %23

.loopexit:                                        ; preds = %23, %21
  %.b = load i1, ptr @multi_success, align 4
  %33 = zext i1 %.b to i32
  %34 = tail call i32 @test_true(ptr noundef nonnull @.str.18, i32 noundef 805, ptr noundef nonnull @.str.44, i32 noundef %33) #11
  %.not10 = icmp ne i32 %34, 0
  %spec.select = zext i1 %.not10 to i32
  br label %teardown_threads.exit

teardown_threads.exit:                            ; preds = %.preheader.i, %.lr.ph.i, %7, %.loopexit, %5
  %.0 = phi i32 [ 0, %5 ], [ %spec.select, %.loopexit ], [ 0, %7 ], [ 0, %.lr.ph.i ], [ 0, %.preheader.i ]
  %35 = load ptr, ptr @multi_provider, align 16, !tbaa !24
  %.not4.i = icmp eq ptr %35, null
  br i1 %.not4.i, label %thead_teardown_libctx.exit, label %.lr.ph.i13

.lr.ph.i13:                                       ; preds = %teardown_threads.exit, %.lr.ph.i13
  %36 = phi ptr [ %39, %.lr.ph.i13 ], [ %35, %teardown_threads.exit ]
  %.05.i14 = phi ptr [ %38, %.lr.ph.i13 ], [ @multi_provider, %teardown_threads.exit ]
  %37 = tail call i32 @OSSL_PROVIDER_unload(ptr noundef nonnull %36) #11
  %38 = getelementptr inbounds nuw i8, ptr %.05.i14, i64 8
  %39 = load ptr, ptr %38, align 8, !tbaa !24
  %.not.i15 = icmp eq ptr %39, null
  br i1 %.not.i15, label %thead_teardown_libctx.exit, label %.lr.ph.i13, !llvm.loop !26

thead_teardown_libctx.exit:                       ; preds = %.lr.ph.i13, %teardown_threads.exit
  %40 = load ptr, ptr @multi_libctx, align 8, !tbaa !16
  tail call void @OSSL_LIB_CTX_free(ptr noundef %40) #11
  store i1 true, ptr @multi_success, align 4
  store ptr null, ptr @multi_libctx, align 8, !tbaa !16
  store i64 0, ptr @multi_num_threads, align 8, !tbaa !12
  tail call void @llvm.memset.p0.i64(ptr noundef nonnull align 16 dereferenceable(80) @multi_threads, i8 0, i64 80, i1 false)
  tail call void @llvm.memset.p0.i64(ptr noundef nonnull align 16 dereferenceable(40) @multi_provider, i8 0, i64 40, i1 false)
  ret i32 %.0
}